target datalayout = "e-m:e-p270:32:32-p271:32:32-p272:64:64-i64:64-i128:128-f80:128-n8:16:32:64-S128"
target triple = "x86_64-pc-linux-gnu"

%struct._zval_struct = type { %union._zend_value, %union.anon, %union.anon.2 }
%union._zend_value = type { i64 }
%union.anon = type { i32 }
%union.anon.2 = type { i32 }
%struct._zend_refcounted_h = type { i32, %union.anon.3 }
%union.anon.3 = type { i32 }
%struct._zend_execute_data = type { ptr, ptr, ptr, ptr, %struct._zval_struct, ptr, ptr, ptr, ptr }
%struct._zend_string = type { %struct._zend_refcounted_h, i64, i64, [1 x i8] }

; Function Attrs: nounwind uwtable
define hidden void @zif_posix_initgroups(ptr noundef %0, ptr noundef %1) #0 {
  %3 = alloca ptr, align 8
  %4 = alloca ptr, align 8
  %5 = alloca i1, align 1
  %6 = alloca ptr, align 8
  %7 = alloca ptr, align 8
  %8 = alloca i8, align 1
  %9 = alloca i32, align 4
  %10 = alloca i8, align 1
  %11 = alloca ptr, align 8
  %12 = alloca ptr, align 8
  %13 = alloca i8, align 1
  %14 = alloca i32, align 4
  %15 = alloca ptr, align 8
  %16 = alloca ptr, align 8
  %17 = alloca i1, align 1
  %18 = alloca ptr, align 8
  %19 = alloca ptr, align 8
  %20 = alloca ptr, align 8
  %21 = alloca i8, align 1
  %22 = alloca i32, align 4
  %23 = alloca i8, align 1
  %24 = alloca i1, align 1
  %25 = alloca ptr, align 8
  %26 = alloca ptr, align 8
  %27 = alloca ptr, align 8
  %28 = alloca i8, align 1
  %29 = alloca i32, align 4
  %30 = alloca ptr, align 8
  %31 = alloca ptr, align 8
  %32 = alloca ptr, align 8
  %33 = alloca ptr, align 8
  %34 = alloca i8, align 1
  %35 = alloca i32, align 4
  %36 = alloca ptr, align 8
  %37 = alloca ptr, align 8
  %38 = alloca i64, align 8
  %39 = alloca ptr, align 8
  %40 = alloca i64, align 8
  %41 = alloca i32, align 4
  %42 = alloca i32, align 4
  %43 = alloca i32, align 4
  %44 = alloca i32, align 4
  %45 = alloca i32, align 4
  %46 = alloca ptr, align 8
  %47 = alloca ptr, align 8
  %48 = alloca i32, align 4
  %49 = alloca ptr, align 8
  %50 = alloca i8, align 1
  %51 = alloca i8, align 1
  %52 = alloca i32, align 4
  store ptr %0, ptr %36, align 8
  store ptr %1, ptr %37, align 8
  br label %53

53:                                               ; preds = %2
  store i32 0, ptr %41, align 4
  store i32 2, ptr %42, align 4
  store i32 2, ptr %43, align 4
  %54 = load ptr, ptr %36, align 8
  %55 = getelementptr inbounds %struct._zend_execute_data, ptr %54, i32 0, i32 4
  %56 = getelementptr inbounds %struct._zval_struct, ptr %55, i32 0, i32 2
  %57 = load i32, ptr %56, align 4
  store i32 %57, ptr %44, align 4
  store i32 0, ptr %45, align 4
  store ptr null, ptr %47, align 8
  store i32 0, ptr %48, align 4
  store ptr null, ptr %49, align 8
  store i8 0, ptr %50, align 1
  store i8 0, ptr %51, align 1
  store i32 0, ptr %52, align 4
  br label %58

58:                                               ; preds = %53
  %59 = load i32, ptr %44, align 4
  %60 = load i32, ptr %42, align 4
  %61 = icmp ult i32 %59, %60
  %62 = xor i1 %61, true
  %63 = xor i1 %62, true
  %64 = zext i1 %63 to i32
  %65 = sext i32 %64 to i64
  %66 = icmp ne i64 %65, 0
  br i1 %66, label %76, label %67

67:                                               ; preds = %58
  %68 = load i32, ptr %44, align 4
  %69 = load i32, ptr %43, align 4
  %70 = icmp ugt i32 %68, %69
  %71 = xor i1 %70, true
  %72 = xor i1 %71, true
  %73 = zext i1 %72 to i32
  %74 = sext i32 %73 to i64
  %75 = icmp ne i64 %74, 0
  br i1 %75, label %76, label %79

76:                                               ; preds = %67, %58
  %77 = load i32, ptr %42, align 4
  %78 = load i32, ptr %43, align 4
  call void @zend_wrong_parameters_count_error(i32 noundef %77, i32 noundef %78)
  store i32 1, ptr %52, align 4
  br label %310

79:                                               ; preds = %67
  %80 = load ptr, ptr %36, align 8
  %81 = getelementptr inbounds %struct._zval_struct, ptr %80, i64 4
  store ptr %81, ptr %46, align 8
  %82 = load i32, ptr %45, align 4
  %83 = add i32 %82, 1
  store i32 %83, ptr %45, align 4
  %84 = load i32, ptr %45, align 4
  %85 = load i32, ptr %42, align 4
  %86 = icmp ule i32 %84, %85
  br i1 %86, label %92, label %87

87:                                               ; preds = %79
  %88 = load i8, ptr %51, align 1
  %89 = trunc i8 %88 to i1
  %90 = zext i1 %89 to i32
  %91 = icmp eq i32 %90, 1
  br label %92

92:                                               ; preds = %87, %79
  %93 = phi i1 [ true, %79 ], [ %91, %87 ]
  call void @llvm.assume(i1 %93)
  %94 = load i32, ptr %45, align 4
  %95 = load i32, ptr %42, align 4
  %96 = icmp ugt i32 %94, %95
  br i1 %96, label %102, label %97

97:                                               ; preds = %92
  %98 = load i8, ptr %51, align 1
  %99 = trunc i8 %98 to i1
  %100 = zext i1 %99 to i32
  %101 = icmp eq i32 %100, 0
  br label %102

102:                                              ; preds = %97, %92
  %103 = phi i1 [ true, %92 ], [ %101, %97 ]
  call void @llvm.assume(i1 %103)
  %104 = load i8, ptr %51, align 1
  %105 = trunc i8 %104 to i1
  br i1 %105, label %106, label %117

106:                                              ; preds = %102
  %107 = load i32, ptr %45, align 4
  %108 = load i32, ptr %44, align 4
  %109 = icmp ugt i32 %107, %108
  %110 = xor i1 %109, true
  %111 = xor i1 %110, true
  %112 = zext i1 %111 to i32
  %113 = sext i32 %112 to i64
  %114 = icmp ne i64 %113, 0
  br i1 %114, label %115, label %116

115:                                              ; preds = %106
  br label %310

116:                                              ; preds = %106
  br label %117

117:                                              ; preds = %116, %102
  %118 = load ptr, ptr %46, align 8
  %119 = getelementptr inbounds %struct._zval_struct, ptr %118, i32 1
  store ptr %119, ptr %46, align 8
  %120 = load ptr, ptr %46, align 8
  store ptr %120, ptr %47, align 8
  %121 = load ptr, ptr %47, align 8
  %122 = load i32, ptr %45, align 4
  store ptr %121, ptr %25, align 8
  store ptr %39, ptr %26, align 8
  store ptr %40, ptr %27, align 8
  store i8 0, ptr %28, align 1
  store i32 %122, ptr %29, align 4
  %123 = load ptr, ptr %25, align 8
  %124 = load i8, ptr %28, align 1
  %125 = trunc i8 %124 to i1
  %126 = load i32, ptr %29, align 4
  store ptr %123, ptr %11, align 8
  store ptr %30, ptr %12, align 8
  %127 = zext i1 %125 to i8
  store i8 %127, ptr %13, align 1
  store i32 %126, ptr %14, align 4
  %128 = load ptr, ptr %11, align 8
  %129 = load ptr, ptr %12, align 8
  %130 = load i8, ptr %13, align 1
  %131 = trunc i8 %130 to i1
  %132 = load i32, ptr %14, align 4
  store ptr %128, ptr %6, align 8
  store ptr %129, ptr %7, align 8
  %133 = zext i1 %131 to i8
  store i8 %133, ptr %8, align 1
  store i32 %132, ptr %9, align 4
  store i8 0, ptr %10, align 1
  %134 = load ptr, ptr %6, align 8
  store ptr %134, ptr %3, align 8
  %135 = load ptr, ptr %3, align 8
  %136 = getelementptr inbounds %struct._zval_struct, ptr %135, i32 0, i32 1
  %137 = load i8, ptr %136, align 8
  %138 = zext i8 %137 to i32
  %139 = icmp eq i32 %138, 6
  br i1 %139, label %140, label %144

140:                                              ; preds = %117
  %141 = load ptr, ptr %6, align 8
  %142 = load ptr, ptr %141, align 8
  %143 = load ptr, ptr %7, align 8
  store ptr %142, ptr %143, align 8
  br label %169

144:                                              ; preds = %117
  %145 = load i8, ptr %8, align 1
  %146 = trunc i8 %145 to i1
  br i1 %146, label %147, label %156

147:                                              ; preds = %144
  %148 = load ptr, ptr %6, align 8
  store ptr %148, ptr %4, align 8
  %149 = load ptr, ptr %4, align 8
  %150 = getelementptr inbounds %struct._zval_struct, ptr %149, i32 0, i32 1
  %151 = load i8, ptr %150, align 8
  %152 = zext i8 %151 to i32
  %153 = icmp eq i32 %152, 1
  br i1 %153, label %154, label %156

154:                                              ; preds = %147
  %155 = load ptr, ptr %7, align 8
  store ptr null, ptr %155, align 8
  br label %169

156:                                              ; preds = %147, %144
  %157 = load i8, ptr %10, align 1
  %158 = trunc i8 %157 to i1
  br i1 %158, label %159, label %164

159:                                              ; preds = %156
  %160 = load ptr, ptr %6, align 8
  %161 = load ptr, ptr %7, align 8
  %162 = load i32, ptr %9, align 4
  %163 = call zeroext i1 @zend_flf_parse_arg_str_slow(ptr noundef %160, ptr noundef %161, i32 noundef %162) #9
  store i1 %163, ptr %5, align 1
  br label %170

164:                                              ; preds = %156
  %165 = load ptr, ptr %6, align 8
  %166 = load ptr, ptr %7, align 8
  %167 = load i32, ptr %9, align 4
  %168 = call zeroext i1 @zend_parse_arg_str_slow(ptr noundef %165, ptr noundef %166, i32 noundef %167) #9
  store i1 %168, ptr %5, align 1
  br label %170

169:                                              ; preds = %154, %140
  store i1 true, ptr %5, align 1
  br label %170

170:                                              ; preds = %169, %164, %159
  %171 = load i1, ptr %5, align 1
  br i1 %171, label %173, label %172

172:                                              ; preds = %170
  store i1 false, ptr %24, align 1
  br label %192

173:                                              ; preds = %170
  %174 = load i8, ptr %28, align 1
  %175 = trunc i8 %174 to i1
  br i1 %175, label %176, label %183

176:                                              ; preds = %173
  %177 = load ptr, ptr %30, align 8
  %178 = icmp ne ptr %177, null
  %179 = xor i1 %178, true
  br i1 %179, label %180, label %183

180:                                              ; preds = %176
  %181 = load ptr, ptr %26, align 8
  store ptr null, ptr %181, align 8
  %182 = load ptr, ptr %27, align 8
  store i64 0, ptr %182, align 8
  br label %191

183:                                              ; preds = %176, %173
  %184 = load ptr, ptr %30, align 8
  %185 = getelementptr inbounds %struct._zend_string, ptr %184, i32 0, i32 3
  %186 = load ptr, ptr %26, align 8
  store ptr %185, ptr %186, align 8
  %187 = load ptr, ptr %30, align 8
  %188 = getelementptr inbounds %struct._zend_string, ptr %187, i32 0, i32 2
  %189 = load i64, ptr %188, align 8
  %190 = load ptr, ptr %27, align 8
  store i64 %189, ptr %190, align 8
  br label %191

191:                                              ; preds = %183, %180
  store i1 true, ptr %24, align 1
  br label %192

192:                                              ; preds = %191, %172
  %193 = load i1, ptr %24, align 1
  %194 = xor i1 %193, true
  %195 = xor i1 %194, true
  %196 = xor i1 %195, true
  %197 = zext i1 %196 to i32
  %198 = sext i32 %197 to i64
  %199 = icmp ne i64 %198, 0
  br i1 %199, label %200, label %201

200:                                              ; preds = %192
  store i32 4, ptr %48, align 4
  store i32 9, ptr %52, align 4
  br label %310

201:                                              ; preds = %192
  %202 = load i32, ptr %45, align 4
  %203 = add i32 %202, 1
  store i32 %203, ptr %45, align 4
  %204 = load i32, ptr %45, align 4
  %205 = load i32, ptr %42, align 4
  %206 = icmp ule i32 %204, %205
  br i1 %206, label %212, label %207

207:                                              ; preds = %201
  %208 = load i8, ptr %51, align 1
  %209 = trunc i8 %208 to i1
  %210 = zext i1 %209 to i32
  %211 = icmp eq i32 %210, 1
  br label %212

212:                                              ; preds = %207, %201
  %213 = phi i1 [ true, %201 ], [ %211, %207 ]
  call void @llvm.assume(i1 %213)
  %214 = load i32, ptr %45, align 4
  %215 = load i32, ptr %42, align 4
  %216 = icmp ugt i32 %214, %215
  br i1 %216, label %222, label %217

217:                                              ; preds = %212
  %218 = load i8, ptr %51, align 1
  %219 = trunc i8 %218 to i1
  %220 = zext i1 %219 to i32
  %221 = icmp eq i32 %220, 0
  br label %222

222:                                              ; preds = %217, %212
  %223 = phi i1 [ true, %212 ], [ %221, %217 ]
  call void @llvm.assume(i1 %223)
  %224 = load i8, ptr %51, align 1
  %225 = trunc i8 %224 to i1
  br i1 %225, label %226, label %237

226:                                              ; preds = %222
  %227 = load i32, ptr %45, align 4
  %228 = load i32, ptr %44, align 4
  %229 = icmp ugt i32 %227, %228
  %230 = xor i1 %229, true
  %231 = xor i1 %230, true
  %232 = zext i1 %231 to i32
  %233 = sext i32 %232 to i64
  %234 = icmp ne i64 %233, 0
  br i1 %234, label %235, label %236

235:                                              ; preds = %226
  br label %310

236:                                              ; preds = %226
  br label %237

237:                                              ; preds = %236, %222
  %238 = load ptr, ptr %46, align 8
  %239 = getelementptr inbounds %struct._zval_struct, ptr %238, i32 1
  store ptr %239, ptr %46, align 8
  %240 = load ptr, ptr %46, align 8
  store ptr %240, ptr %47, align 8
  %241 = load ptr, ptr %47, align 8
  %242 = load i32, ptr %45, align 4
  store ptr %241, ptr %31, align 8
  store ptr %38, ptr %32, align 8
  store ptr %50, ptr %33, align 8
  store i8 0, ptr %34, align 1
  store i32 %242, ptr %35, align 4
  %243 = load ptr, ptr %31, align 8
  %244 = load ptr, ptr %32, align 8
  %245 = load ptr, ptr %33, align 8
  %246 = load i8, ptr %34, align 1
  %247 = trunc i8 %246 to i1
  %248 = load i32, ptr %35, align 4
  store ptr %243, ptr %18, align 8
  store ptr %244, ptr %19, align 8
  store ptr %245, ptr %20, align 8
  %249 = zext i1 %247 to i8
  store i8 %249, ptr %21, align 1
  store i32 %248, ptr %22, align 4
  store i8 0, ptr %23, align 1
  %250 = load i8, ptr %21, align 1
  %251 = trunc i8 %250 to i1
  br i1 %251, label %252, label %254

252:                                              ; preds = %237
  %253 = load ptr, ptr %20, align 8
  store i8 0, ptr %253, align 1
  br label %254

254:                                              ; preds = %252, %237
  %255 = load ptr, ptr %18, align 8
  store ptr %255, ptr %15, align 8
  %256 = load ptr, ptr %15, align 8
  %257 = getelementptr inbounds %struct._zval_struct, ptr %256, i32 0, i32 1
  %258 = load i8, ptr %257, align 8
  %259 = zext i8 %258 to i32
  %260 = icmp eq i32 %259, 4
  br i1 %260, label %261, label %265

261:                                              ; preds = %254
  %262 = load ptr, ptr %18, align 8
  %263 = load i64, ptr %262, align 8
  %264 = load ptr, ptr %19, align 8
  store i64 %263, ptr %264, align 8
  br label %291

265:                                              ; preds = %254
  %266 = load i8, ptr %21, align 1
  %267 = trunc i8 %266 to i1
  br i1 %267, label %268, label %278

268:                                              ; preds = %265
  %269 = load ptr, ptr %18, align 8
  store ptr %269, ptr %16, align 8
  %270 = load ptr, ptr %16, align 8
  %271 = getelementptr inbounds %struct._zval_struct, ptr %270, i32 0, i32 1
  %272 = load i8, ptr %271, align 8
  %273 = zext i8 %272 to i32
  %274 = icmp eq i32 %273, 1
  br i1 %274, label %275, label %278

275:                                              ; preds = %268
  %276 = load ptr, ptr %20, align 8
  store i8 1, ptr %276, align 1
  %277 = load ptr, ptr %19, align 8
  store i64 0, ptr %277, align 8
  br label %291

278:                                              ; preds = %268, %265
  %279 = load i8, ptr %23, align 1
  %280 = trunc i8 %279 to i1
  br i1 %280, label %281, label %286

281:                                              ; preds = %278
  %282 = load ptr, ptr %18, align 8
  %283 = load ptr, ptr %19, align 8
  %284 = load i32, ptr %22, align 4
  %285 = call zeroext i1 @zend_flf_parse_arg_long_slow(ptr noundef %282, ptr noundef %283, i32 noundef %284) #9
  store i1 %285, ptr %17, align 1
  br label %292

286:                                              ; preds = %278
  %287 = load ptr, ptr %18, align 8
  %288 = load ptr, ptr %19, align 8
  %289 = load i32, ptr %22, align 4
  %290 = call zeroext i1 @zend_parse_arg_long_slow(ptr noundef %287, ptr noundef %288, i32 noundef %289) #9
  store i1 %290, ptr %17, align 1
  br label %292

291:                                              ; preds = %275, %261
  store i1 true, ptr %17, align 1
  br label %292

292:                                              ; preds = %291, %286, %281
  %293 = load i1, ptr %17, align 1
  %294 = xor i1 %293, true
  %295 = xor i1 %294, true
  %296 = xor i1 %295, true
  %297 = zext i1 %296 to i32
  %298 = sext i32 %297 to i64
  %299 = icmp ne i64 %298, 0
  br i1 %299, label %300, label %301

300:                                              ; preds = %292
  store i32 0, ptr %48, align 4
  store i32 9, ptr %52, align 4
  br label %310

301:                                              ; preds = %292
  %302 = load i32, ptr %45, align 4
  %303 = load i32, ptr %43, align 4
  %304 = icmp eq i32 %302, %303
  br i1 %304, label %308, label %305

305:                                              ; preds = %301
  %306 = load i32, ptr %43, align 4
  %307 = icmp eq i32 %306, -1
  br label %308

308:                                              ; preds = %305, %301
  %309 = phi i1 [ true, %301 ], [ %307, %305 ]
  call void @llvm.assume(i1 %309)
  br label %310

310:                                              ; preds = %308, %300, %235, %200, %115, %76
  %311 = load i32, ptr %52, align 4
  %312 = icmp ne i32 %311, 0
  %313 = xor i1 %312, true
  %314 = xor i1 %313, true
  %315 = zext i1 %314 to i32
  %316 = sext i32 %315 to i64
  %317 = icmp ne i64 %316, 0
  br i1 %317, label %318, label %324

318:                                              ; preds = %310
  %319 = load i32, ptr %52, align 4
  %320 = load i32, ptr %45, align 4
  %321 = load ptr, ptr %49, align 8
  %322 = load i32, ptr %48, align 4
  %323 = load ptr, ptr %47, align 8
  call void @zend_wrong_parameter_error(i32 noundef %319, i32 noundef %320, ptr noundef %321, i32 noundef %322, ptr noundef %323)
  br label %348

324:                                              ; preds = %310
  br label %325

325:                                              ; preds = %324
  %326 = load i64, ptr %40, align 8
  %327 = icmp eq i64 %326, 0
  br i1 %327, label %328, label %335

328:                                              ; preds = %325
  br label %329

329:                                              ; preds = %328
  br label %330

330:                                              ; preds = %329
  %331 = load ptr, ptr %37, align 8
  %332 = getelementptr inbounds %struct._zval_struct, ptr %331, i32 0, i32 1
  store i32 2, ptr %332, align 8
  br label %333

333:                                              ; preds = %330
  br label %348

334:                                              ; No predecessors!
  br label %335

335:                                              ; preds = %334, %325
  br label %336

336:                                              ; preds = %335
  br label %337

337:                                              ; preds = %336
  %338 = load ptr, ptr %39, align 8
  %339 = load i64, ptr %38, align 8
  %340 = trunc i64 %339 to i32
  %341 = call i32 @initgroups(ptr noundef %338, i32 noundef %340)
  %342 = icmp ne i32 %341, 0
  %343 = xor i1 %342, true
  %344 = select i1 %343, i32 3, i32 2
  %345 = load ptr, ptr %37, align 8
  %346 = getelementptr inbounds %struct._zval_struct, ptr %345, i32 0, i32 1
  store i32 %344, ptr %346, align 8
  br label %347

347:                                              ; preds = %337
  br label %348

348:                                              ; preds = %347, %333, %318
  ret void
}