; Function Attrs: nounwind uwtable
define hidden void @zif_posix_initgroups(ptr noundef %0, ptr nocapture noundef writeonly %1) #0 {
  %3 = alloca ptr, align 8
  %4 = alloca i64, align 8
  %5 = getelementptr inbounds i8, ptr %0, i64 44
  %6 = load i32, ptr %5, align 4
  %.not = icmp eq i32 %6, 2
  br i1 %.not, label %8, label %7

7:                                                ; preds = %2
  tail call void @zend_wrong_parameters_count_error(i32 noundef 2, i32 noundef 2) #11
  br label %.thread133

8:                                                ; preds = %2
  %9 = getelementptr inbounds i8, ptr %0, i64 80
  %10 = getelementptr inbounds i8, ptr %0, i64 88
  %11 = load i8, ptr %10, align 8
  %12 = icmp eq i8 %11, 6
  br i1 %12, label %.thread, label %14

.thread:                                          ; preds = %8
  %13 = load ptr, ptr %9, align 8
  store ptr %13, ptr %3, align 8
  br label %16

14:                                               ; preds = %8
  %15 = call zeroext i1 @zend_parse_arg_str_slow(ptr noundef nonnull %9, ptr noundef nonnull %3, i32 noundef 1) #11
  br i1 %15, label %._crit_edge, label %.thread133

._crit_edge:                                      ; preds = %14
  %.pre = load ptr, ptr %3, align 8
  br label %16

16:                                               ; preds = %._crit_edge, %.thread
  %17 = phi ptr [ %.pre, %._crit_edge ], [ %13, %.thread ]
  %18 = getelementptr inbounds i8, ptr %17, i64 16
  %19 = load i64, ptr %18, align 8
  %20 = getelementptr inbounds i8, ptr %17, i64 24
  %21 = getelementptr inbounds i8, ptr %0, i64 96
  %22 = getelementptr inbounds i8, ptr %0, i64 104
  %23 = load i8, ptr %22, align 8
  %24 = icmp eq i8 %23, 4
  br i1 %24, label %.thread129, label %26

.thread129:                                       ; preds = %16
  %25 = load i64, ptr %21, align 8
  store i64 %25, ptr %4, align 8
  br label %.thread156

26:                                               ; preds = %16
  %27 = call zeroext i1 @zend_parse_arg_long_slow(ptr noundef nonnull %21, ptr noundef nonnull %4, i32 noundef 2) #11
  %.fr = freeze i1 %27
  br i1 %.fr, label %.thread156, label %.thread133

.thread133:                                       ; preds = %14, %7, %26
  %.0144 = phi i32 [ 9, %26 ], [ 9, %14 ], [ 1, %7 ]
  %.0101143 = phi i32 [ 0, %26 ], [ 4, %14 ], [ 0, %7 ]
  %.0102142 = phi ptr [ %21, %26 ], [ %9, %14 ], [ null, %7 ]
  %.0103141 = phi i32 [ 2, %26 ], [ 1, %14 ], [ 0, %7 ]
  call void @zend_wrong_parameter_error(i32 noundef %.0144, i32 noundef %.0103141, ptr noundef null, i32 noundef %.0101143, ptr noundef %.0102142) #11
  br label %37

.thread156:                                       ; preds = %26, %.thread129
  %28 = icmp eq i64 %19, 0
  br i1 %28, label %29, label %31

29:                                               ; preds = %.thread156
  %30 = getelementptr inbounds i8, ptr %1, i64 8
  store i32 2, ptr %30, align 8
  br label %37

31:                                               ; preds = %.thread156
  %32 = load i64, ptr %4, align 8
  %33 = trunc i64 %32 to i32
  %34 = call i32 @initgroups(ptr noundef nonnull %20, i32 noundef %33) #11
  %.not113 = icmp eq i32 %34, 0
  %35 = select i1 %.not113, i32 3, i32 2
  %36 = getelementptr inbounds i8, ptr %1, i64 8
  store i32 %35, ptr %36, align 8
  br label %37

37:                                               ; preds = %31, %29, %.thread133
  ret void
}